target datalayout = "e-m:e-p270:32:32-p271:32:32-p272:64:64-i64:64-i128:128-f80:128-n8:16:32:64-S128"
target triple = "x86_64-pc-linux-gnu"

%"struct.duckdb_hll::sdshdr8" = type { i8, i8, i8, [1 x i8] }
%"struct.duckdb_hll::sdshdr16" = type { i16, i16, i8, [1 x i8] }
%"struct.duckdb_hll::sdshdr32" = type <{ i32, i32, i8, [1 x i8] }>
%"struct.duckdb_hll::sdshdr64" = type <{ i64, i64, i8, [1 x i8] }>

; Function Attrs: inlinehint mustprogress nounwind uwtable
define internal noundef i64 @_ZN10duckdb_hllL6sdslenEPc(ptr noundef %0) #2 {
  %2 = alloca i64, align 8
  %3 = alloca ptr, align 8
  %4 = alloca i8, align 1
  %5 = alloca i32, align 4
  store ptr %0, ptr %3, align 8, !tbaa !12
  call void @llvm.lifetime.start.p0(i64 1, ptr %4) #11
  %6 = load ptr, ptr %3, align 8, !tbaa !12
  %7 = getelementptr inbounds i8, ptr %6, i64 -1
  %8 = load i8, ptr %7, align 1, !tbaa !9
  store i8 %8, ptr %4, align 1, !tbaa !9
  %9 = load i8, ptr %4, align 1, !tbaa !9
  %10 = zext i8 %9 to i32
  %11 = and i32 %10, 7
  switch i32 %11, label %40 [
    i32 0, label %12
    i32 1, label %17
    i32 2, label %23
    i32 3, label %29
    i32 4, label %35
  ]

12:                                               ; preds = %1
  %13 = load i8, ptr %4, align 1, !tbaa !9
  %14 = zext i8 %13 to i32
  %15 = ashr i32 %14, 3
  %16 = sext i32 %15 to i64
  store i64 %16, ptr %2, align 8
  store i32 1, ptr %5, align 4
  br label %41

17:                                               ; preds = %1
  %18 = load ptr, ptr %3, align 8, !tbaa !12
  %19 = getelementptr inbounds i8, ptr %18, i64 -4
  %20 = getelementptr inbounds nuw %"struct.duckdb_hll::sdshdr8", ptr %19, i32 0, i32 0
  %21 = load i8, ptr %20, align 1, !tbaa !16
  %22 = zext i8 %21 to i64
  store i64 %22, ptr %2, align 8
  store i32 1, ptr %5, align 4
  br label %41

23:                                               ; preds = %1
  %24 = load ptr, ptr %3, align 8, !tbaa !12
  %25 = getelementptr inbounds i8, ptr %24, i64 -6
  %26 = getelementptr inbounds nuw %"struct.duckdb_hll::sdshdr16", ptr %25, i32 0, i32 0
  %27 = load i16, ptr %26, align 1, !tbaa !21
  %28 = zext i16 %27 to i64
  store i64 %28, ptr %2, align 8
  store i32 1, ptr %5, align 4
  br label %41

29:                                               ; preds = %1
  %30 = load ptr, ptr %3, align 8, !tbaa !12
  %31 = getelementptr inbounds i8, ptr %30, i64 -10
  %32 = getelementptr inbounds nuw %"struct.duckdb_hll::sdshdr32", ptr %31, i32 0, i32 0
  %33 = load i32, ptr %32, align 1, !tbaa !27
  %34 = zext i32 %33 to i64
  store i64 %34, ptr %2, align 8
  store i32 1, ptr %5, align 4
  br label %41

35:                                               ; preds = %1
  %36 = load ptr, ptr %3, align 8, !tbaa !12
  %37 = getelementptr inbounds i8, ptr %36, i64 -18
  %38 = getelementptr inbounds nuw %"struct.duckdb_hll::sdshdr64", ptr %37, i32 0, i32 0
  %39 = load i64, ptr %38, align 1, !tbaa !32
  store i64 %39, ptr %2, align 8
  store i32 1, ptr %5, align 4
  br label %41

40:                                               ; preds = %1
  store i64 0, ptr %2, align 8
  store i32 1, ptr %5, align 4
  br label %41

41:                                               ; preds = %40, %35, %29, %23, %17, %12
  call void @llvm.lifetime.end.p0(i64 1, ptr %4) #11
  %42 = load i64, ptr %2, align 8
  ret i64 %42
}

; Function Attrs: mustprogress uwtable
define noundef ptr @_ZN10duckdb_hll11sdsmapcharsEPcPKcS2_m(ptr noundef %0, ptr noundef %1, ptr noundef %2, i64 noundef %3) #0 {
  %5 = alloca ptr, align 8
  %6 = alloca ptr, align 8
  %7 = alloca ptr, align 8
  %8 = alloca i64, align 8
  %9 = alloca i64, align 8
  %10 = alloca i64, align 8
  %11 = alloca i64, align 8
  store ptr %0, ptr %5, align 8, !tbaa !12
  store ptr %1, ptr %6, align 8, !tbaa !12
  store ptr %2, ptr %7, align 8, !tbaa !12
  store i64 %3, ptr %8, align 8, !tbaa !7
  call void @llvm.lifetime.start.p0(i64 8, ptr %9) #11
  call void @llvm.lifetime.start.p0(i64 8, ptr %10) #11
  call void @llvm.lifetime.start.p0(i64 8, ptr %11) #11
  %12 = load ptr, ptr %5, align 8, !tbaa !12
  %13 = call noundef i64 @_ZN10duckdb_hllL6sdslenEPc(ptr noundef %12)
  store i64 %13, ptr %11, align 8, !tbaa !7
  store i64 0, ptr %9, align 8, !tbaa !7
  br label %14

14:                                               ; preds = %48, %4
  %15 = load i64, ptr %9, align 8, !tbaa !7
  %16 = load i64, ptr %11, align 8, !tbaa !7
  %17 = icmp ult i64 %15, %16
  br i1 %17, label %18, label %51

18:                                               ; preds = %14
  store i64 0, ptr %10, align 8, !tbaa !7
  br label %19

19:                                               ; preds = %44, %18
  %20 = load i64, ptr %10, align 8, !tbaa !7
  %21 = load i64, ptr %8, align 8, !tbaa !7
  %22 = icmp ult i64 %20, %21
  br i1 %22, label %23, label %47

23:                                               ; preds = %19
  %24 = load ptr, ptr %5, align 8, !tbaa !12
  %25 = load i64, ptr %9, align 8, !tbaa !7
  %26 = getelementptr inbounds nuw i8, ptr %24, i64 %25
  %27 = load i8, ptr %26, align 1, !tbaa !9
  %28 = sext i8 %27 to i32
  %29 = load ptr, ptr %6, align 8, !tbaa !12
  %30 = load i64, ptr %10, align 8, !tbaa !7
  %31 = getelementptr inbounds nuw i8, ptr %29, i64 %30
  %32 = load i8, ptr %31, align 1, !tbaa !9
  %33 = sext i8 %32 to i32
  %34 = icmp eq i32 %28, %33
  br i1 %34, label %35, label %43

35:                                               ; preds = %23
  %36 = load ptr, ptr %7, align 8, !tbaa !12
  %37 = load i64, ptr %10, align 8, !tbaa !7
  %38 = getelementptr inbounds nuw i8, ptr %36, i64 %37
  %39 = load i8, ptr %38, align 1, !tbaa !9
  %40 = load ptr, ptr %5, align 8, !tbaa !12
  %41 = load i64, ptr %9, align 8, !tbaa !7
  %42 = getelementptr inbounds nuw i8, ptr %40, i64 %41
  store i8 %39, ptr %42, align 1, !tbaa !9
  br label %47

43:                                               ; preds = %23
  br label %44

44:                                               ; preds = %43
  %45 = load i64, ptr %10, align 8, !tbaa !7
  %46 = add i64 %45, 1
  store i64 %46, ptr %10, align 8, !tbaa !7
  br label %19, !llvm.loop !62

47:                                               ; preds = %35, %19
  br label %48

48:                                               ; preds = %47
  %49 = load i64, ptr %9, align 8, !tbaa !7
  %50 = add i64 %49, 1
  store i64 %50, ptr %9, align 8, !tbaa !7
  br label %14, !llvm.loop !63

51:                                               ; preds = %14
  %52 = load ptr, ptr %5, align 8, !tbaa !12
  call void @llvm.lifetime.end.p0(i64 8, ptr %11) #11
  call void @llvm.lifetime.end.p0(i64 8, ptr %10) #11
  call void @llvm.lifetime.end.p0(i64 8, ptr %9) #11
  ret ptr %52
}