; Function Attrs: mustprogress nofree norecurse nosync nounwind memory(argmem: readwrite) uwtable
define noundef ptr @_ZN10duckdb_hll11sdsmapcharsEPcPKcS2_m(ptr noundef returned captures(ret: address, provenance) %0, ptr noundef readonly captures(none) %1, ptr noundef readonly captures(none) %2, i64 noundef %3) local_unnamed_addr #14 {
  %5 = getelementptr inbounds i8, ptr %0, i64 -1
  %6 = load i8, ptr %5, align 1, !tbaa !20
  %7 = zext i8 %6 to i32
  %8 = and i32 %7, 7
  switch i32 %8, label %._crit_edge [
    i32 0, label %9
    i32 1, label %12
    i32 2, label %16
    i32 3, label %20
    i32 4, label %24
  ]

9:                                                ; preds = %4
  %10 = lshr i32 %7, 3
  %11 = zext nneg i32 %10 to i64
  br label %_ZN10duckdb_hllL6sdslenEPc.exit

12:                                               ; preds = %4
  %13 = getelementptr inbounds i8, ptr %0, i64 -4
  %14 = load i8, ptr %13, align 1, !tbaa !3
  %15 = zext i8 %14 to i64
  br label %_ZN10duckdb_hllL6sdslenEPc.exit

16:                                               ; preds = %4
  %17 = getelementptr inbounds i8, ptr %0, i64 -6
  %18 = load i16, ptr %17, align 1, !tbaa !8
  %19 = zext i16 %18 to i64
  br label %_ZN10duckdb_hllL6sdslenEPc.exit

20:                                               ; preds = %4
  %21 = getelementptr inbounds i8, ptr %0, i64 -10
  %22 = load i32, ptr %21, align 1, !tbaa !12
  %23 = zext i32 %22 to i64
  br label %_ZN10duckdb_hllL6sdslenEPc.exit

24:                                               ; preds = %4
  %25 = getelementptr inbounds i8, ptr %0, i64 -18
  %26 = load i64, ptr %25, align 1, !tbaa !16
  br label %_ZN10duckdb_hllL6sdslenEPc.exit

_ZN10duckdb_hllL6sdslenEPc.exit:                  ; preds = %9, %12, %16, %20, %24
  %.0.i = phi i64 [ %26, %24 ], [ %23, %20 ], [ %19, %16 ], [ %15, %12 ], [ %11, %9 ]
  %.not = icmp eq i64 %.0.i, 0
  %.not20 = icmp eq i64 %3, 0
  %or.cond = or i1 %.not, %.not20
  br i1 %or.cond, label %._crit_edge, label %.preheader.us

.preheader.us:                                    ; preds = %_ZN10duckdb_hllL6sdslenEPc.exit, %..loopexit_crit_edge.us
  %.018.us = phi i64 [ %38, %..loopexit_crit_edge.us ], [ 0, %_ZN10duckdb_hllL6sdslenEPc.exit ]
  %27 = getelementptr inbounds nuw i8, ptr %0, i64 %.018.us
  %28 = load i8, ptr %27, align 1, !tbaa !20
  br label %29

29:                                               ; preds = %.preheader.us, %33
  %.01517.us = phi i64 [ 0, %.preheader.us ], [ %34, %33 ]
  %30 = getelementptr inbounds nuw i8, ptr %1, i64 %.01517.us
  %31 = load i8, ptr %30, align 1, !tbaa !20
  %32 = icmp eq i8 %28, %31
  br i1 %32, label %35, label %33

33:                                               ; preds = %29
  %34 = add nuw i64 %.01517.us, 1
  %exitcond.not = icmp eq i64 %34, %3
  br i1 %exitcond.not, label %..loopexit_crit_edge.us, label %29, !llvm.loop !45

35:                                               ; preds = %29
  %36 = getelementptr inbounds nuw i8, ptr %2, i64 %.01517.us
  %37 = load i8, ptr %36, align 1, !tbaa !20
  store i8 %37, ptr %27, align 1, !tbaa !20
  br label %..loopexit_crit_edge.us

..loopexit_crit_edge.us:                          ; preds = %33, %35
  %38 = add nuw i64 %.018.us, 1
  %exitcond23.not = icmp eq i64 %38, %.0.i
  br i1 %exitcond23.not, label %._crit_edge, label %.preheader.us, !llvm.loop !46

._crit_edge:                                      ; preds = %..loopexit_crit_edge.us, %4, %_ZN10duckdb_hllL6sdslenEPc.exit
  ret ptr %0
}